Certificate:
    Data:
        Version: 3 (0x2)
        Serial Number: 1 (0x1)
    Signature Algorithm: sha256WithRSAEncryption
        Issuer: C=ES, ST=Espana, L=Granada, O=ETSIIT, OU=SPSI, CN=Javier/emailAddress=javigalera@correo.ugr.es
        Validity
            Not Before: Nov 29 20:34:26 2018 GMT
            Not After : Nov 24 20:34:26 2019 GMT
        Subject: C=ES, ST=Espana, O=ETSIIT, OU=SPSI, CN=Javier/emailAddress=javigalera@correo.ugr.es
        Subject Public Key Info:
            Public Key Algorithm: rsaEncryption
                Public-Key: (2048 bit)
                Modulus:
                    00:d1:8c:0e:60:0c:4a:53:db:de:e0:ff:f1:9d:0f:
                    86:22:6b:45:00:85:97:9f:98:1e:08:c3:b7:90:e4:
                    fe:1a:e5:e8:4d:ac:8b:c5:d6:fa:38:bc:16:bb:08:
                    1f:d0:0d:c9:07:b1:29:82:35:36:f8:51:8a:c3:2f:
                    d0:7c:c3:93:1d:c1:56:3d:25:98:ce:7c:74:ae:31:
                    2f:b0:df:cb:6c:02:9c:34:46:43:c6:46:c6:3c:cf:
                    a2:2d:d4:75:db:42:5c:25:4b:21:94:21:14:11:c8:
                    54:bd:52:04:29:5a:37:6d:e6:25:97:b7:51:c4:a9:
                    de:75:2d:e7:6c:b3:98:1a:73:26:0a:c4:04:d6:15:
                    60:3d:5a:a9:ac:7a:5d:bd:3f:81:69:b3:aa:20:a1:
                    1e:56:3b:94:eb:44:dd:c4:07:10:39:d8:fe:42:9d:
                    e0:bf:c6:f0:ee:af:18:ac:b9:89:bd:99:2d:31:e3:
                    fb:8a:b2:31:46:8b:bf:8b:82:c8:f0:bd:6d:d2:93:
                    0e:ff:a0:d3:87:77:b9:5e:70:60:d4:02:7a:d9:ce:
                    70:b7:04:2b:02:86:07:72:30:e4:97:5f:7e:72:d1:
                    39:c2:41:14:8e:ce:e1:9a:70:45:0c:cf:46:5e:66:
                    8e:ca:4b:06:10:9c:2e:c4:ce:3b:14:65:00:ba:c4:
                    01:55
                Exponent: 65537 (0x10001)
        X509v3 extensions:
            X509v3 Subject Key Identifier: 
                3D:C6:72:4A:4F:66:DA:CC:8B:FE:63:BD:EF:D8:75:7D:03:9B:59:8C
            X509v3 Authority Key Identifier: 
                keyid:9D:99:40:D0:E6:93:53:0E:40:03:C0:83:C7:8F:EC:E3:AE:54:12:B3

            X509v3 Basic Constraints: critical
                CA:TRUE, pathlen:0
            X509v3 Key Usage: critical
                Digital Signature, Certificate Sign, CRL Sign
    Signature Algorithm: sha256WithRSAEncryption
         bf:67:13:4d:64:ec:6a:55:94:3a:40:bf:35:bc:65:63:65:8e:
         55:71:5e:fd:b2:3e:de:d9:d3:7e:cc:99:50:dc:55:cb:f8:e0:
         0d:0e:86:d8:48:c1:fb:6a:17:c2:46:aa:fe:74:58:da:3c:39:
         83:ff:3d:ed:7e:10:d5:e5:67:7a:c4:b0:bf:ef:7f:ae:7d:90:
         c7:ba:31:37:e9:03:97:96:23:17:c8:f5:00:39:27:38:c6:a5:
         78:80:0f:ee:20:03:db:5d:b6:31:d0:45:1f:3f:88:69:c2:8d:
         99:05:fe:3c:79:81:04:61:ff:6e:78:74:c6:25:42:5e:1e:34:
         82:f8:b9:9e:ed:f4:b7:ad:78:d5:d5:91:fc:ff:f0:68:f3:71:
         13:f4:00:54:68:e8:fe:3c:8e:12:18:11:eb:63:08:db:c1:29:
         ec:a3:9d:a6:34:dd:31:97:8f:38:29:34:07:c7:d4:8b:14:58:
         39:a6:04:0a:26:4d:10:a7:ce:21:e7:f0:3e:90:da:6f:d3:03:
         92:85:48:90:0c:17:b2:86:bb:2a:63:d9:22:f6:4d:fb:28:52:
         41:a1:c2:6c:57:4d:bb:e9:4a:7a:1d:fb:e8:32:74:cb:b4:b3:
         bb:aa:b3:73:92:64:fd:6f:0b:f2:c9:6e:7c:99:81:09:3c:74:
         78:be:69:d4
-----BEGIN CERTIFICATE-----
MIID5DCCAsygAwIBAgIBATANBgkqhkiG9w0BAQsFADCBijELMAkGA1UEBhMCRVMx
DzANBgNVBAgMBkVzcGFuYTEQMA4GA1UEBwwHR3JhbmFkYTEPMA0GA1UECgwGRVRT
SUlUMQ0wCwYDVQQLDARTUFNJMQ8wDQYDVQQDDAZKYXZpZXIxJzAlBgkqhkiG9w0B
CQEWGGphdmlnYWxlcmFAY29ycmVvLnVnci5lczAeFw0xODExMjkyMDM0MjZaFw0x
OTExMjQyMDM0MjZaMHgxCzAJBgNVBAYTAkVTMQ8wDQYDVQQIDAZFc3BhbmExDzAN
BgNVBAoMBkVUU0lJVDENMAsGA1UECwwEU1BTSTEPMA0GA1UEAwwGSmF2aWVyMScw
JQYJKoZIhvcNAQkBFhhqYXZpZ2FsZXJhQGNvcnJlby51Z3IuZXMwggEiMA0GCSqG
SIb3DQEBAQUAA4IBDwAwggEKAoIBAQDRjA5gDEpT297g//GdD4Yia0UAhZefmB4I
w7eQ5P4a5ehNrIvF1vo4vBa7CB/QDckHsSmCNTb4UYrDL9B8w5MdwVY9JZjOfHSu
MS+w38tsApw0RkPGRsY8z6It1HXbQlwlSyGUIRQRyFS9UgQpWjdt5iWXt1HEqd51
Ledss5gacyYKxATWFWA9Wqmsel29P4Fps6ogoR5WO5TrRN3EBxA52P5CneC/xvDu
rxisuYm9mS0x4/uKsjFGi7+LgsjwvW3Skw7/oNOHd7lecGDUAnrZznC3BCsChgdy
MOSXX35y0TnCQRSOzuGacEUMz0ZeZo7KSwYQnC7EzjsUZQC6xAFVAgMBAAGjZjBk
MB0GA1UdDgQWBBQ9xnJKT2bazIv+Y73v2HV9A5tZjDAfBgNVHSMEGDAWgBSdmUDQ
5pNTDkADwIPHj+zjrlQSszASBgNVHRMBAf8ECDAGAQH/AgEAMA4GA1UdDwEB/wQE
AwIBhjANBgkqhkiG9w0BAQsFAAOCAQEAv2cTTWTsalWUOkC/NbxlY2WOVXFe/bI+
3tnTfsyZUNxVy/jgDQ6G2EjB+2oXwkaq/nRY2jw5g/897X4Q1eVnesSwv+9/rn2Q
x7oxN+kDl5YjF8j1ADknOMaleIAP7iAD2122MdBFHz+IacKNmQX+PHmBBGH/bnh0
xiVCXh40gvi5nu30t6141dWR/P/waPNxE/QAVGjo/jyOEhgR62MI28Ep7KOdpjTd
MZePOCk0B8fUixRYOaYECiZNEKfOIefwPpDab9MDkoVIkAwXsoa7KmPZIvZN+yhS
QaHCbFdNu+lKeh376DJ0y7Szu6qzc5Jk/W8L8slufJmBCTx0eL5p1A==
-----END CERTIFICATE-----
