Certificate:
    Data:
        Version: 3 (0x2)
        Serial Number: 1 (0x1)
    Signature Algorithm: sha256WithRSAEncryption
        Issuer: C=ES, ST=Espana, O=ETSIIT, OU=SPSI, CN=Javier/emailAddress=javigalera@correo.ugr.es
        Validity
            Not Before: Nov 29 21:28:32 2018 GMT
            Not After : Oct 15 21:28:32 2019 GMT
        Subject: C=ES, ST=Espana, L=Granada, O=ETSIIT, OU=SPSI, CN=Javier/emailAddress=javigalera@correo.ugr
        Subject Public Key Info:
            Public Key Algorithm: rsaEncryption
                Public-Key: (2048 bit)
                Modulus:
                    00:bb:2a:04:b9:64:ae:de:03:4c:e0:e5:5f:6b:8b:
                    20:73:8c:b5:08:5e:6e:9a:9f:f2:75:1c:fe:10:83:
                    a4:40:e2:01:23:0e:e4:91:fc:3e:4d:08:ef:e5:84:
                    d1:e5:83:24:55:dd:db:e5:35:0f:9d:89:32:dd:7a:
                    ff:d3:8f:10:12:79:eb:ca:b7:6d:16:fc:6c:32:ac:
                    e6:6c:9e:93:35:c4:31:d9:46:dd:7a:c3:dd:41:42:
                    d2:d1:5a:dd:62:86:10:39:6b:6b:53:48:06:93:be:
                    0e:5d:24:9a:fe:df:83:52:d9:88:fb:11:19:86:59:
                    bf:fa:70:9b:db:97:ef:6a:a7:e2:fa:65:b1:56:bc:
                    84:80:33:23:d5:4e:41:b4:41:0e:e2:c1:5f:4d:4e:
                    29:dc:16:dc:34:e3:d0:16:e1:c4:3b:6f:b2:21:e3:
                    77:aa:0b:30:bd:fa:43:62:dc:73:af:96:4a:4b:4e:
                    fd:72:e3:72:6f:78:38:a6:ba:5e:11:a6:2e:d9:35:
                    73:ec:fe:48:e1:c3:1d:19:01:7b:a9:dd:0f:c7:9e:
                    68:18:59:d3:27:15:71:4a:8a:74:86:5a:67:ab:d4:
                    eb:08:bd:17:1a:f7:71:e7:29:a4:bb:50:c5:28:0c:
                    3d:9f:0f:14:82:a2:16:5d:4b:a2:47:30:9a:91:d5:
                    52:29
                Exponent: 65537 (0x10001)
        X509v3 extensions:
            X509v3 Basic Constraints: 
                CA:FALSE
            Netscape Cert Type: 
                SSL Server
            Netscape Comment: 
                OpenSSL Generated Server Certificate
            X509v3 Subject Key Identifier: 
                E9:52:DE:46:29:E3:C4:2F:16:4E:E1:15:3B:88:76:AA:AF:4D:85:92
            X509v3 Authority Key Identifier: 
                keyid:3D:C6:72:4A:4F:66:DA:CC:8B:FE:63:BD:EF:D8:75:7D:03:9B:59:8C
                DirName:/C=ES/ST=Espana/L=Granada/O=ETSIIT/OU=SPSI/CN=Javier/emailAddress=javigalera@correo.ugr.es
                serial:01

            X509v3 Key Usage: critical
                Digital Signature, Key Encipherment
            X509v3 Extended Key Usage: 
                TLS Web Server Authentication
    Signature Algorithm: sha256WithRSAEncryption
         14:81:84:9c:72:54:29:72:c9:63:a2:73:60:b3:0a:2d:32:0c:
         74:5d:58:69:8f:02:e2:52:52:aa:72:74:30:f2:b5:07:1e:51:
         62:42:1c:6d:c9:83:96:19:cd:ce:ce:f8:46:11:4c:73:3a:dc:
         f5:f1:aa:fd:13:06:a1:8a:0f:58:63:8b:ed:66:91:ea:10:98:
         41:a5:d6:b2:e6:78:f3:70:51:7e:d4:9c:fb:d5:99:78:2b:36:
         4d:87:38:f9:20:69:71:00:cd:79:30:dd:9d:6d:a9:e6:6d:6d:
         5d:a2:00:2a:39:53:3a:32:cf:9d:1f:d7:14:7b:09:e1:b4:db:
         d4:26:88:31:08:48:ff:55:c4:fb:95:63:43:81:e0:50:66:79:
         98:3b:7b:f9:de:31:01:91:e5:0c:9f:23:2e:dc:86:de:59:96:
         57:8c:33:34:71:03:58:b3:d9:58:f5:67:04:9f:2e:12:02:0c:
         38:28:45:81:15:89:ce:52:7c:91:7b:b5:b1:e9:4b:ea:db:66:
         95:95:62:35:eb:e3:70:a4:ce:2e:4b:1d:75:f0:c9:4f:9a:af:
         d4:8c:b8:42:f7:ee:54:ba:19:a0:49:33:f2:ae:42:8d:0e:a2:
         5b:0b:bd:35:d9:71:8f:2a:31:06:15:3c:eb:0e:65:8f:66:82:
         82:ae:65:69
-----BEGIN CERTIFICATE-----
MIIE0jCCA7qgAwIBAgIBATANBgkqhkiG9w0BAQsFADB4MQswCQYDVQQGEwJFUzEP
MA0GA1UECAwGRXNwYW5hMQ8wDQYDVQQKDAZFVFNJSVQxDTALBgNVBAsMBFNQU0kx
DzANBgNVBAMMBkphdmllcjEnMCUGCSqGSIb3DQEJARYYamF2aWdhbGVyYUBjb3Jy
ZW8udWdyLmVzMB4XDTE4MTEyOTIxMjgzMloXDTE5MTAxNTIxMjgzMlowgYcxCzAJ
BgNVBAYTAkVTMQ8wDQYDVQQIDAZFc3BhbmExEDAOBgNVBAcMB0dyYW5hZGExDzAN
BgNVBAoMBkVUU0lJVDENMAsGA1UECwwEU1BTSTEPMA0GA1UEAwwGSmF2aWVyMSQw
IgYJKoZIhvcNAQkBFhVqYXZpZ2FsZXJhQGNvcnJlby51Z3IwggEiMA0GCSqGSIb3
DQEBAQUAA4IBDwAwggEKAoIBAQC7KgS5ZK7eA0zg5V9riyBzjLUIXm6an/J1HP4Q
g6RA4gEjDuSR/D5NCO/lhNHlgyRV3dvlNQ+diTLdev/TjxASeevKt20W/GwyrOZs
npM1xDHZRt16w91BQtLRWt1ihhA5a2tTSAaTvg5dJJr+34NS2Yj7ERmGWb/6cJvb
l+9qp+L6ZbFWvISAMyPVTkG0QQ7iwV9NTincFtw049AW4cQ7b7Ih43eqCzC9+kNi
3HOvlkpLTv1y43JveDimul4Rpi7ZNXPs/kjhwx0ZAXup3Q/HnmgYWdMnFXFKinSG
Wmer1OsIvRca93HnKaS7UMUoDD2fDxSCohZdS6JHMJqR1VIpAgMBAAGjggFVMIIB
UTAJBgNVHRMEAjAAMBEGCWCGSAGG+EIBAQQEAwIGQDAzBglghkgBhvhCAQ0EJhYk
T3BlblNTTCBHZW5lcmF0ZWQgU2VydmVyIENlcnRpZmljYXRlMB0GA1UdDgQWBBTp
Ut5GKePELxZO4RU7iHaqr02FkjCBtwYDVR0jBIGvMIGsgBQ9xnJKT2bazIv+Y73v
2HV9A5tZjKGBkKSBjTCBijELMAkGA1UEBhMCRVMxDzANBgNVBAgMBkVzcGFuYTEQ
MA4GA1UEBwwHR3JhbmFkYTEPMA0GA1UECgwGRVRTSUlUMQ0wCwYDVQQLDARTUFNJ
MQ8wDQYDVQQDDAZKYXZpZXIxJzAlBgkqhkiG9w0BCQEWGGphdmlnYWxlcmFAY29y
cmVvLnVnci5lc4IBATAOBgNVHQ8BAf8EBAMCBaAwEwYDVR0lBAwwCgYIKwYBBQUH
AwEwDQYJKoZIhvcNAQELBQADggEBABSBhJxyVClyyWOic2CzCi0yDHRdWGmPAuJS
UqpydDDytQceUWJCHG3Jg5YZzc7O+EYRTHM63PXxqv0TBqGKD1hji+1mkeoQmEGl
1rLmePNwUX7UnPvVmXgrNk2HOPkgaXEAzXkw3Z1tqeZtbV2iACo5Uzoyz50f1xR7
CeG029QmiDEISP9VxPuVY0OB4FBmeZg7e/neMQGR5QyfIy7cht5ZlleMMzRxA1iz
2Vj1ZwSfLhICDDgoRYEVic5SfJF7tbHpS+rbZpWVYjXr43Ckzi5LHXXwyU+ar9SM
uEL37lS6GaBJM/KuQo0OolsLvTXZcY8qMQYVPOsOZY9mgoKuZWk=
-----END CERTIFICATE-----
