Certificate:
    Data:
        Version: 3 (0x2)
        Serial Number: 2 (0x2)
    Signature Algorithm: sha256WithRSAEncryption
        Issuer: C=ES, ST=Espana, O=ETSIIT, OU=SPSI, CN=Javier/emailAddress=javigalera@correo.ugr.es
        Validity
            Not Before: Nov 29 22:03:18 2018 GMT
            Not After : Oct  5 22:03:18 2019 GMT
        Subject: C=ES, ST=Espana, L=Granada, O=ETSIIT, OU=SPSI, CN=Javier/emailAddress=javigalera@correo.ugr.es
        Subject Public Key Info:
            Public Key Algorithm: id-ecPublicKey
                Public-Key: (256 bit)
                pub: 
                    04:0c:9c:5e:42:b1:cf:4f:4a:a3:45:f2:ac:be:3d:
                    a0:33:66:17:c4:85:af:98:b5:b5:13:b0:9c:a1:d8:
                    8e:89:db:a0:3a:90:37:0d:c5:c4:36:bf:6d:b5:a4:
                    de:8b:9a:50:02:dc:9b:bf:47:bf:1c:16:20:6a:08:
                    c0:97:5a:5e:50
                ASN1 OID: prime256v1
        X509v3 extensions:
            X509v3 Basic Constraints: 
                CA:FALSE
            Netscape Cert Type: 
                SSL Server
            Netscape Comment: 
                OpenSSL Generated Server Certificate
            X509v3 Subject Key Identifier: 
                CD:B0:E0:CA:8F:E4:E2:51:00:45:F5:39:B8:47:34:1C:0F:1B:9D:F5
            X509v3 Authority Key Identifier: 
                keyid:3D:C6:72:4A:4F:66:DA:CC:8B:FE:63:BD:EF:D8:75:7D:03:9B:59:8C
                DirName:/C=ES/ST=Espana/L=Granada/O=ETSIIT/OU=SPSI/CN=Javier/emailAddress=javigalera@correo.ugr.es
                serial:01

            X509v3 Key Usage: critical
                Digital Signature, Key Encipherment
            X509v3 Extended Key Usage: 
                TLS Web Server Authentication
    Signature Algorithm: sha256WithRSAEncryption
         d0:f6:d1:e6:bb:e6:be:4a:37:14:b6:5d:5a:c7:54:15:38:b7:
         4c:2a:5f:1a:9f:e0:8f:7b:af:10:2e:6e:9e:7c:94:19:2e:58:
         6b:3f:69:e6:ce:b3:b4:d0:3b:e6:50:7b:45:9d:3a:6b:f9:91:
         2a:32:0d:67:a4:61:38:20:7e:56:d1:fa:fa:39:52:04:2e:ed:
         20:63:47:ca:3c:60:73:df:78:4c:d3:d3:7a:fc:f3:45:e4:15:
         45:05:c5:65:12:f5:49:9a:c4:9d:81:c5:b9:42:4f:0d:8f:1b:
         bd:00:60:ce:fa:06:7c:36:37:3a:f9:e4:f5:df:f8:52:0f:3b:
         6c:06:66:9b:8d:38:56:9e:13:b6:fb:88:db:74:a6:b2:02:ff:
         d7:ed:27:7c:3e:c8:2f:ca:4d:6c:e1:1f:4c:ac:fc:06:7a:3a:
         30:a9:c2:fb:8d:82:2f:7f:10:5f:77:eb:72:31:ed:fb:73:3a:
         7b:de:0e:b2:05:23:0d:68:ff:9c:dd:7e:3e:e6:a1:58:8f:94:
         5f:41:40:00:68:b1:fb:41:54:d8:c4:25:8a:f4:1b:f8:c9:d9:
         32:e6:c9:f5:66:b0:22:bf:97:a3:92:d8:8a:b6:ce:e0:ae:aa:
         26:83:2a:5b:49:cc:2a:a8:f4:a9:01:35:4b:00:67:fd:14:f5:
         95:bf:91:12
-----BEGIN CERTIFICATE-----
MIIECjCCAvKgAwIBAgIBAjANBgkqhkiG9w0BAQsFADB4MQswCQYDVQQGEwJFUzEP
MA0GA1UECAwGRXNwYW5hMQ8wDQYDVQQKDAZFVFNJSVQxDTALBgNVBAsMBFNQU0kx
DzANBgNVBAMMBkphdmllcjEnMCUGCSqGSIb3DQEJARYYamF2aWdhbGVyYUBjb3Jy
ZW8udWdyLmVzMB4XDTE4MTEyOTIyMDMxOFoXDTE5MTAwNTIyMDMxOFowgYoxCzAJ
BgNVBAYTAkVTMQ8wDQYDVQQIDAZFc3BhbmExEDAOBgNVBAcMB0dyYW5hZGExDzAN
BgNVBAoMBkVUU0lJVDENMAsGA1UECwwEU1BTSTEPMA0GA1UEAwwGSmF2aWVyMScw
JQYJKoZIhvcNAQkBFhhqYXZpZ2FsZXJhQGNvcnJlby51Z3IuZXMwWTATBgcqhkjO
PQIBBggqhkjOPQMBBwNCAAQMnF5Csc9PSqNF8qy+PaAzZhfEha+YtbUTsJyh2I6J
26A6kDcNxcQ2v221pN6LmlAC3Ju/R78cFiBqCMCXWl5Qo4IBVTCCAVEwCQYDVR0T
BAIwADARBglghkgBhvhCAQEEBAMCBkAwMwYJYIZIAYb4QgENBCYWJE9wZW5TU0wg
R2VuZXJhdGVkIFNlcnZlciBDZXJ0aWZpY2F0ZTAdBgNVHQ4EFgQUzbDgyo/k4lEA
RfU5uEc0HA8bnfUwgbcGA1UdIwSBrzCBrIAUPcZySk9m2syL/mO979h1fQObWYyh
gZCkgY0wgYoxCzAJBgNVBAYTAkVTMQ8wDQYDVQQIDAZFc3BhbmExEDAOBgNVBAcM
B0dyYW5hZGExDzANBgNVBAoMBkVUU0lJVDENMAsGA1UECwwEU1BTSTEPMA0GA1UE
AwwGSmF2aWVyMScwJQYJKoZIhvcNAQkBFhhqYXZpZ2FsZXJhQGNvcnJlby51Z3Iu
ZXOCAQEwDgYDVR0PAQH/BAQDAgWgMBMGA1UdJQQMMAoGCCsGAQUFBwMBMA0GCSqG
SIb3DQEBCwUAA4IBAQDQ9tHmu+a+SjcUtl1ax1QVOLdMKl8an+CPe68QLm6efJQZ
LlhrP2nmzrO00DvmUHtFnTpr+ZEqMg1npGE4IH5W0fr6OVIELu0gY0fKPGBz33hM
09N6/PNF5BVFBcVlEvVJmsSdgcW5Qk8Njxu9AGDO+gZ8Njc6+eT13/hSDztsBmab
jThWnhO2+4jbdKayAv/X7Sd8Psgvyk1s4R9MrPwGejowqcL7jYIvfxBfd+tyMe37
czp73g6yBSMNaP+c3X4+5qFYj5RfQUAAaLH7QVTYxCWK9Bv4ydky5sn1ZrAiv5ej
ktiKts7grqomgypbScwqqPSpATVLAGf9FPWVv5ES
-----END CERTIFICATE-----
